(lp0
F6.642888987969951e-08
aF2.1989894486548423e-08
aF1.0156041016494822e-08
aF6.256501709020171e-09
aF5.1805617476590246e-09
aF3.7330955565461015e-09
aF3.248625352949784e-09
aF4.543022737404975e-09
aF2.820627136275737e-09
aF3.5607073859412766e-09
aF3.875761628770784e-09
aF4.048149799375608e-09
aF4.290384901173767e-09
aF5.945905780947685e-09
aF5.9652251448947775e-09
aF6.678555506018189e-09
aF6.589389210877763e-09
aF6.480903551790244e-09
aF6.359042948431661e-09
aF6.234210135235064e-09
aF6.104919007281446e-09
aF5.975627879327827e-09
aF5.849308961212223e-09
aF6.650319512557054e-09
aF6.506167335413365e-09
aF6.3649873681076895e-09
aF6.229751820478043e-09
aF6.09748848268641e-09
aF5.97414177440882e-09
aF5.8537672759692444e-09
aF5.740823302124704e-09
aF5.627879328280164e-09
aF5.5238519839496665e-09
aF5.42428295437619e-09
aF5.323227819883707e-09
aF5.231089314905266e-09
aF5.140436914845833e-09
aF5.0557289344624275e-09
aF4.9725070589980295e-09
aF4.892257393371646e-09
aF4.816466042502283e-09
aF4.745133006389942e-09
aF4.675286075196608e-09
aF4.608411353841288e-09
aF4.543022737404975e-09
aF4.482092435725684e-09
aF4.4211621340463924e-09
aF4.364690147124122e-09
aF4.3111903700398665e-09
aF4.259176697874618e-09
aF3.663248625352767e-09
aF3.621637687620568e-09
aF3.582998959726383e-09
aF3.5473324416702126e-09
aF3.510179818695035e-09
aF3.4789716153958856e-09
aF3.4477634120967364e-09
aF3.4180413137165942e-09
aF3.3912914251744663e-09
aF3.860900579580713e-09
aF3.835636795957592e-09
aF3.808886907415464e-09
aF3.786595333630357e-09
aF3.770248179521279e-09
aF3.753901025412201e-09
aF3.2724030316538976e-09
aF3.2694308218158834e-09
aF3.266458611977869e-09
aF3.2709169267348905e-09
aF3.737553871303123e-09
aF4.085302422350786e-09
aF4.092732946945822e-09
aF4.103135681378871e-09
aF4.112052310892914e-09
aF4.120968940406957e-09
aF4.1328577797590135e-09
aF3.813345222172485e-09
aF3.84158121563362e-09
aF3.5012631891809923e-09
aF3.978302868182274e-09
aF3.978302868182274e-09
aF3.987219497696317e-09
aF4.037747064942559e-09
aF4.025858225590502e-09
aF4.010997176400431e-09
aF3.9946500222913525e-09
aF3.901025412393905e-09
aF3.874275523851777e-09
aF3.850497845147663e-09
aF3.831178481200571e-09
aF3.811859117253478e-09
aF3.791053648387379e-09
aF3.770248179521279e-09
aF3.750928815574187e-09
aF3.731609451627094e-09
aF3.361569326794324e-09
aF3.345222172685246e-09
aF3.331847228414182e-09
aF3.318472284143118e-09
aF3.3080695497100682e-09
a.