(dp0
Vcapacity
p1
I2
sVn_atoms
p2
I2
sVwc
p3
F6729000000.0
sVwc(Hz)
p4
V6.729 GHz
p5
sVwa
p6
F6729000000.0
sVwa(Hz)
p7
V6.729 GHz
p8
sVg_0
p9
F0.1
sVg_step
p10
F0.01
sVg_1
p11
F1.0
sVl
p12
F67290000.0
sVl(Hz)
p13
V67.29 MHz
p14
sVl/wc
p15
F0.01
sVdt
p16
F1.486104919007282e-11
sVdt(s)
p17
V14.861 p
p18
sVdt*l
p19
F0.001
sVsink_limit
p20
F0.95
sVsink_precision
p21
F0.0001
sVro_trace_precision
p22
F0.0001
sVampl_precision
p23
F0.001
sVpath
p24
Vout/mix/l_wc100.0_dt_l_0.001
p25
s.