(lp0
F3.0224104621807497e-06
aF2.788646158419162e-06
aF2.6581661465293503e-06
aF2.530331401395391e-06
aF2.3091098231503185e-06
aF2.1876058849713776e-06
aF2.068880962991001e-06
aF1.952400059438342e-06
a.