(lp0
F1.2635161242365567e-06
aF1.250230346260722e-06
aF1.1548521325594828e-06
aF1.1429187100599354e-06
aF1.0506761777377803e-06
aF1.0401396938620903e-06
aF9.50735621935199e-07
aF9.414177440930203e-07
a.