(lp0
F5.447466191114664e-07
aF5.412691336009883e-07
aF5.379402585824108e-07
aF4.6812304948742583e-07
aF4.655966711251126e-07
aF4.632189032547002e-07
aF4.6106405112213893e-07
aF4.5910239262904867e-07
a.