(lp0
F4.574230940705699e-07
aF4.5598157229913235e-07
aF4.5492643780663684e-07
aF4.541685242979429e-07
aF4.5378213701900086e-07
aF4.539456085600917e-07
aF4.546886610195956e-07
aF4.561599048894133e-07
a.